Certificate:
    Data:
        Version: 3 (0x2)
        Serial Number: 4096 (0x1000)
        Signature Algorithm: sha256WithRSAEncryption
        Issuer: C=AU, ST=Some-State, O=Internet Widgits Pty Ltd
        Validity
            Not Before: Oct 22 03:11:42 2023 GMT
            Not After : Oct 19 03:11:42 2033 GMT
        Subject: C=US, O=xtliu2023 Inc., CN=www.xtliu2023.com
        Subject Public Key Info:
            Public Key Algorithm: rsaEncryption
                RSA Public-Key: (2048 bit)
                Modulus:
                    00:a5:c3:b5:42:28:2b:96:cd:bd:fe:74:77:d5:bd:
                    53:5e:dc:c4:b9:bc:e2:05:23:f0:65:ae:1c:84:45:
                    5f:d4:49:37:ad:41:6b:78:ee:1d:dd:44:33:17:27:
                    c5:0d:1e:aa:55:68:52:a4:42:75:d7:71:bb:b3:30:
                    15:44:e6:45:58:d0:1f:3b:94:ec:cd:c0:f1:e3:51:
                    9c:e8:e5:d2:fc:6a:a3:24:06:b7:68:74:9b:9f:74:
                    66:ff:04:90:93:3b:89:eb:9f:3f:9b:e1:dc:bd:f1:
                    11:f9:37:94:ab:4f:12:05:38:a4:39:13:29:f1:7a:
                    97:fe:aa:f9:9d:de:00:af:37:35:99:7c:b0:80:d3:
                    e3:6a:5d:b4:13:d1:be:e3:68:b6:f7:7a:db:59:2a:
                    a8:61:b0:bd:37:d1:ab:79:98:b4:cd:83:14:1b:6b:
                    0a:d4:9b:cd:f2:a0:52:11:07:93:75:76:f3:37:7b:
                    31:6d:08:c7:4c:0b:36:2c:54:a8:95:b7:76:da:d1:
                    6e:e0:79:ba:1d:5a:ac:c9:8f:7a:e6:d6:48:67:8f:
                    a6:e5:b6:e3:e9:2c:a1:44:42:c3:64:50:bd:a6:c4:
                    43:72:59:25:3a:8f:dc:62:d7:b7:20:59:04:fa:bc:
                    97:ec:5a:8d:f5:41:56:f3:e1:6a:4d:ec:4c:4d:28:
                    d4:33
                Exponent: 65537 (0x10001)
        X509v3 extensions:
            X509v3 Basic Constraints: 
                CA:FALSE
            Netscape Comment: 
                OpenSSL Generated Certificate
            X509v3 Subject Key Identifier: 
                45:70:3A:4A:EA:16:C1:C0:AA:F3:FF:AF:49:8B:68:DA:D0:91:90:70
            X509v3 Authority Key Identifier: 
                keyid:DF:00:3B:28:22:4A:1A:43:CA:AD:34:AC:29:78:4A:F3:C6:7D:9C:0A

    Signature Algorithm: sha256WithRSAEncryption
         5f:7b:d3:24:92:0c:b4:07:e2:01:b6:11:ac:e9:c2:19:a8:83:
         6e:e1:55:66:70:e6:0b:9e:a9:a0:2d:f2:f2:16:93:c3:c3:ca:
         ba:8f:a7:7a:e5:65:31:90:ee:7f:88:ea:b9:ae:da:26:d2:cc:
         2a:f9:02:72:22:dd:12:7c:0e:28:a7:d9:34:c1:4c:6f:ca:20:
         83:60:21:fc:42:1c:3b:ed:86:a0:12:5e:af:81:4c:80:8e:6e:
         af:d0:ac:11:af:65:a4:83:04:b3:d3:29:a9:09:cc:97:41:94:
         6c:08:db:c4:01:ef:2c:db:23:e1:d2:7c:48:cc:f6:7b:8d:d6:
         0a:03:8a:f3:50:8e:92:bb:98:dc:9c:32:1e:b6:0a:9d:bc:4b:
         82:f2:bc:45:9c:e7:6b:95:51:d4:df:21:7c:cd:01:31:40:37:
         22:92:71:cc:c3:78:40:da:aa:ed:a7:b6:a8:7a:0b:b9:71:20:
         f3:ea:0a:b6:06:d7:35:0f:9b:07:f0:73:c1:c5:73:db:28:73:
         db:10:a9:a4:74:ac:c2:8d:e4:72:90:a9:ec:8f:82:d7:c9:dd:
         0c:5b:b9:aa:a2:e9:f8:47:cb:b9:be:50:3b:8b:a4:84:6e:43:
         30:a1:7c:82:07:a9:fc:3d:8c:a1:e5:d5:f6:97:ab:ce:bc:35:
         c5:9c:7b:1d:aa:ba:26:be:d7:5f:34:22:c4:f4:a6:94:f3:d5:
         19:6f:fc:cd:5c:50:33:66:35:67:23:93:74:31:8a:ac:1e:ec:
         78:31:0e:29:85:db:dc:1b:0b:aa:0a:29:c0:c5:a2:5f:8c:3a:
         b4:5d:42:7b:0d:6c:d1:2d:40:4b:e6:9c:0c:ef:f7:d9:6c:29:
         7c:b7:27:9c:43:3a:1c:ac:3c:01:dd:d9:c5:87:40:05:2e:89:
         69:bc:20:7c:34:99:4e:6c:60:0a:44:92:d5:1b:4a:f6:78:e8:
         35:69:9f:9e:b1:54:c7:c6:ee:6d:8d:b8:3d:98:c1:24:66:a8:
         cd:14:db:29:33:fc:4b:b7:b4:c8:b5:a3:41:d6:c5:48:66:48:
         94:83:be:fc:95:5c:f9:d8:51:4f:14:d7:70:a6:a6:9a:e3:ee:
         2c:66:7a:75:14:48:40:3c:f0:1a:69:f2:6f:ac:2e:a7:ad:05:
         ff:23:7d:fa:cf:46:22:0f:a3:2e:53:45:85:82:a5:ba:aa:f1:
         4b:d1:35:c0:58:07:1c:79:96:53:48:8e:ee:af:fd:cb:56:b5:
         2f:d4:c5:a5:cd:64:95:c9:4f:9c:86:98:35:e0:08:d0:ba:db:
         5c:3f:dc:56:28:ae:88:cf:7c:ba:77:71:c2:35:e3:1c:99:f3:
         01:1a:0c:0c:9e:ef:c4:2b
-----BEGIN CERTIFICATE-----
MIIEfjCCAmagAwIBAgICEAAwDQYJKoZIhvcNAQELBQAwRTELMAkGA1UEBhMCQVUx
EzARBgNVBAgMClNvbWUtU3RhdGUxITAfBgNVBAoMGEludGVybmV0IFdpZGdpdHMg
UHR5IEx0ZDAeFw0yMzEwMjIwMzExNDJaFw0zMzEwMTkwMzExNDJaMEIxCzAJBgNV
BAYTAlVTMRcwFQYDVQQKDA54dGxpdTIwMjMgSW5jLjEaMBgGA1UEAwwRd3d3Lnh0
bGl1MjAyMy5jb20wggEiMA0GCSqGSIb3DQEBAQUAA4IBDwAwggEKAoIBAQClw7VC
KCuWzb3+dHfVvVNe3MS5vOIFI/BlrhyERV/USTetQWt47h3dRDMXJ8UNHqpVaFKk
QnXXcbuzMBVE5kVY0B87lOzNwPHjUZzo5dL8aqMkBrdodJufdGb/BJCTO4nrnz+b
4dy98RH5N5SrTxIFOKQ5Eynxepf+qvmd3gCvNzWZfLCA0+NqXbQT0b7jaLb3ettZ
KqhhsL030at5mLTNgxQbawrUm83yoFIRB5N1dvM3ezFtCMdMCzYsVKiVt3ba0W7g
ebodWqzJj3rm1khnj6bltuPpLKFEQsNkUL2mxENyWSU6j9xi17cgWQT6vJfsWo31
QVbz4WpN7ExNKNQzAgMBAAGjezB5MAkGA1UdEwQCMAAwLAYJYIZIAYb4QgENBB8W
HU9wZW5TU0wgR2VuZXJhdGVkIENlcnRpZmljYXRlMB0GA1UdDgQWBBRFcDpK6hbB
wKrz/69Ji2ja0JGQcDAfBgNVHSMEGDAWgBTfADsoIkoaQ8qtNKwpeErzxn2cCjAN
BgkqhkiG9w0BAQsFAAOCAgEAX3vTJJIMtAfiAbYRrOnCGaiDbuFVZnDmC56poC3y
8haTw8PKuo+neuVlMZDuf4jqua7aJtLMKvkCciLdEnwOKKfZNMFMb8ogg2Ah/EIc
O+2GoBJer4FMgI5ur9CsEa9lpIMEs9MpqQnMl0GUbAjbxAHvLNsj4dJ8SMz2e43W
CgOK81COkruY3JwyHrYKnbxLgvK8RZzna5VR1N8hfM0BMUA3IpJxzMN4QNqq7ae2
qHoLuXEg8+oKtgbXNQ+bB/BzwcVz2yhz2xCppHSswo3kcpCp7I+C18ndDFu5qqLp
+EfLub5QO4ukhG5DMKF8ggep/D2MoeXV9perzrw1xZx7Haq6Jr7XXzQixPSmlPPV
GW/8zVxQM2Y1ZyOTdDGKrB7seDEOKYXb3BsLqgopwMWiX4w6tF1Cew1s0S1AS+ac
DO/32WwpfLcnnEM6HKw8Ad3ZxYdABS6JabwgfDSZTmxgCkSS1RtK9njoNWmfnrFU
x8bubY24PZjBJGaozRTbKTP8S7e0yLWjQdbFSGZIlIO+/JVc+dhRTxTXcKammuPu
LGZ6dRRIQDzwGmnyb6wup60F/yN9+s9GIg+jLlNFhYKluqrxS9E1wFgHHHmWU0iO
7q/9y1a1L9TFpc1klclPnIaYNeAI0LrbXD/cViiuiM98undxwjXjHJnzARoMDJ7v
xCs=
-----END CERTIFICATE-----
