Certificate:
    Data:
        Version: 3 (0x2)
        Serial Number: 4097 (0x1001)
        Signature Algorithm: sha256WithRSAEncryption
        Issuer: C=AU, ST=Some-State, O=Internet Widgits Pty Ltd
        Validity
            Not Before: Oct 22 03:21:36 2023 GMT
            Not After : Oct 19 03:21:36 2033 GMT
        Subject: C=US, O=xtliu2023 Inc., CN=www.xtliu2023.com
        Subject Public Key Info:
            Public Key Algorithm: rsaEncryption
                RSA Public-Key: (2048 bit)
                Modulus:
                    00:a5:c3:b5:42:28:2b:96:cd:bd:fe:74:77:d5:bd:
                    53:5e:dc:c4:b9:bc:e2:05:23:f0:65:ae:1c:84:45:
                    5f:d4:49:37:ad:41:6b:78:ee:1d:dd:44:33:17:27:
                    c5:0d:1e:aa:55:68:52:a4:42:75:d7:71:bb:b3:30:
                    15:44:e6:45:58:d0:1f:3b:94:ec:cd:c0:f1:e3:51:
                    9c:e8:e5:d2:fc:6a:a3:24:06:b7:68:74:9b:9f:74:
                    66:ff:04:90:93:3b:89:eb:9f:3f:9b:e1:dc:bd:f1:
                    11:f9:37:94:ab:4f:12:05:38:a4:39:13:29:f1:7a:
                    97:fe:aa:f9:9d:de:00:af:37:35:99:7c:b0:80:d3:
                    e3:6a:5d:b4:13:d1:be:e3:68:b6:f7:7a:db:59:2a:
                    a8:61:b0:bd:37:d1:ab:79:98:b4:cd:83:14:1b:6b:
                    0a:d4:9b:cd:f2:a0:52:11:07:93:75:76:f3:37:7b:
                    31:6d:08:c7:4c:0b:36:2c:54:a8:95:b7:76:da:d1:
                    6e:e0:79:ba:1d:5a:ac:c9:8f:7a:e6:d6:48:67:8f:
                    a6:e5:b6:e3:e9:2c:a1:44:42:c3:64:50:bd:a6:c4:
                    43:72:59:25:3a:8f:dc:62:d7:b7:20:59:04:fa:bc:
                    97:ec:5a:8d:f5:41:56:f3:e1:6a:4d:ec:4c:4d:28:
                    d4:33
                Exponent: 65537 (0x10001)
        X509v3 extensions:
            X509v3 Basic Constraints: 
                CA:FALSE
            Netscape Comment: 
                OpenSSL Generated Certificate
            X509v3 Subject Key Identifier: 
                45:70:3A:4A:EA:16:C1:C0:AA:F3:FF:AF:49:8B:68:DA:D0:91:90:70
            X509v3 Authority Key Identifier: 
                keyid:DF:00:3B:28:22:4A:1A:43:CA:AD:34:AC:29:78:4A:F3:C6:7D:9C:0A

            X509v3 Subject Alternative Name: 
                DNS:www.xtliu2023.com, DNS:www.xtliu2023A.com, DNS:www.xtliu2023B.com
    Signature Algorithm: sha256WithRSAEncryption
         2e:ce:b4:a8:3e:bb:23:57:cc:d7:f1:ce:3e:98:f5:73:4a:86:
         7b:c7:28:47:25:ac:1c:57:a3:1d:ea:3b:e8:54:cd:c4:ff:0c:
         34:0c:84:ff:37:ba:cf:9e:64:a9:34:54:c6:8f:9a:fe:0c:96:
         f9:09:8a:6b:f8:c0:22:6b:60:3c:0e:19:ad:28:4a:5e:e4:3c:
         d3:7d:e3:cf:53:9f:93:02:e6:a9:76:fa:bd:7a:2c:4b:90:bd:
         4e:ed:03:ef:15:df:1f:ce:d3:80:a2:af:b1:20:77:02:96:8b:
         56:70:47:45:74:ec:7d:7f:a4:0e:e5:2b:f7:e9:e3:d9:d9:7f:
         5d:f1:c4:b3:48:70:60:19:3a:72:5c:e4:13:ac:cf:bc:01:5c:
         05:47:67:ec:80:ba:36:52:84:8a:71:c8:61:de:bf:3a:70:cb:
         64:c3:57:4c:6b:52:6a:b1:42:19:75:05:6d:00:3e:23:e0:56:
         59:97:2e:0c:60:a0:20:3d:69:99:a9:ee:35:14:0c:d8:c8:c5:
         4a:6f:45:45:5b:2d:54:e1:00:49:19:ac:75:90:36:7b:28:e8:
         f4:71:e5:0c:4b:6f:ab:6d:0e:33:2a:b3:6b:37:b5:6f:45:49:
         a3:00:d1:0d:0d:84:c7:de:ed:0e:61:1b:f6:aa:ad:b4:76:bc:
         94:aa:b0:44:88:84:ba:9f:cc:29:59:74:58:6f:26:97:41:66:
         7e:1c:fb:bf:f0:c7:3a:9b:91:91:2a:18:9d:38:9e:4b:dc:85:
         76:a9:89:32:40:28:63:46:d7:28:7e:13:93:bf:50:d1:5d:7c:
         d1:b2:83:e2:a2:8a:cf:5a:0b:4e:b5:4f:4f:8c:7f:49:bb:fa:
         d2:88:da:2a:94:eb:88:79:30:b0:e1:62:e7:d8:b9:55:03:20:
         3c:cb:71:e0:90:59:15:98:81:3c:85:d1:9d:db:ec:af:25:65:
         19:cd:ea:12:91:e5:76:03:71:74:fe:21:f2:a6:3d:30:5a:c6:
         91:d1:1d:5b:84:3c:e6:c8:cb:c2:55:e1:90:5f:25:d2:d4:42:
         b1:d0:42:6c:18:6e:49:d3:8e:cf:8a:a1:64:72:75:b1:7a:66:
         6c:14:3a:99:7e:82:cf:67:47:80:db:f2:8c:8f:89:d1:ff:8c:
         29:9c:83:92:76:81:f4:7d:d2:0f:c3:33:9b:62:c7:23:94:28:
         ba:64:4c:71:99:0a:93:59:69:2b:c6:05:42:19:7f:6e:8d:5c:
         73:af:0a:29:6b:25:91:33:2e:8d:c9:64:d9:01:e1:0d:a7:21:
         ab:af:8d:88:93:90:93:35:67:83:8e:c2:6e:8e:ee:f9:b8:ac:
         64:c6:62:bb:48:2b:24:a8
-----BEGIN CERTIFICATE-----
MIIExjCCAq6gAwIBAgICEAEwDQYJKoZIhvcNAQELBQAwRTELMAkGA1UEBhMCQVUx
EzARBgNVBAgMClNvbWUtU3RhdGUxITAfBgNVBAoMGEludGVybmV0IFdpZGdpdHMg
UHR5IEx0ZDAeFw0yMzEwMjIwMzIxMzZaFw0zMzEwMTkwMzIxMzZaMEIxCzAJBgNV
BAYTAlVTMRcwFQYDVQQKDA54dGxpdTIwMjMgSW5jLjEaMBgGA1UEAwwRd3d3Lnh0
bGl1MjAyMy5jb20wggEiMA0GCSqGSIb3DQEBAQUAA4IBDwAwggEKAoIBAQClw7VC
KCuWzb3+dHfVvVNe3MS5vOIFI/BlrhyERV/USTetQWt47h3dRDMXJ8UNHqpVaFKk
QnXXcbuzMBVE5kVY0B87lOzNwPHjUZzo5dL8aqMkBrdodJufdGb/BJCTO4nrnz+b
4dy98RH5N5SrTxIFOKQ5Eynxepf+qvmd3gCvNzWZfLCA0+NqXbQT0b7jaLb3ettZ
KqhhsL030at5mLTNgxQbawrUm83yoFIRB5N1dvM3ezFtCMdMCzYsVKiVt3ba0W7g
ebodWqzJj3rm1khnj6bltuPpLKFEQsNkUL2mxENyWSU6j9xi17cgWQT6vJfsWo31
QVbz4WpN7ExNKNQzAgMBAAGjgcIwgb8wCQYDVR0TBAIwADAsBglghkgBhvhCAQ0E
HxYdT3BlblNTTCBHZW5lcmF0ZWQgQ2VydGlmaWNhdGUwHQYDVR0OBBYEFEVwOkrq
FsHAqvP/r0mLaNrQkZBwMB8GA1UdIwQYMBaAFN8AOygiShpDyq00rCl4SvPGfZwK
MEQGA1UdEQQ9MDuCEXd3dy54dGxpdTIwMjMuY29tghJ3d3cueHRsaXUyMDIzQS5j
b22CEnd3dy54dGxpdTIwMjNCLmNvbTANBgkqhkiG9w0BAQsFAAOCAgEALs60qD67
I1fM1/HOPpj1c0qGe8coRyWsHFejHeo76FTNxP8MNAyE/ze6z55kqTRUxo+a/gyW
+QmKa/jAImtgPA4ZrShKXuQ8033jz1OfkwLmqXb6vXosS5C9Tu0D7xXfH87TgKKv
sSB3ApaLVnBHRXTsfX+kDuUr9+nj2dl/XfHEs0hwYBk6clzkE6zPvAFcBUdn7IC6
NlKEinHIYd6/OnDLZMNXTGtSarFCGXUFbQA+I+BWWZcuDGCgID1pmanuNRQM2MjF
Sm9FRVstVOEASRmsdZA2eyjo9HHlDEtvq20OMyqzaze1b0VJowDRDQ2Ex97tDmEb
9qqttHa8lKqwRIiEup/MKVl0WG8ml0Fmfhz7v/DHOpuRkSoYnTieS9yFdqmJMkAo
Y0bXKH4Tk79Q0V180bKD4qKKz1oLTrVPT4x/Sbv60ojaKpTriHkwsOFi59i5VQMg
PMtx4JBZFZiBPIXRndvsryVlGc3qEpHldgNxdP4h8qY9MFrGkdEdW4Q85sjLwlXh
kF8l0tRCsdBCbBhuSdOOz4qhZHJ1sXpmbBQ6mX6Cz2dHgNvyjI+J0f+MKZyDknaB
9H3SD8Mzm2LHI5QoumRMcZkKk1lpK8YFQhl/bo1cc68KKWslkTMujclk2QHhDach
q6+NiJOQkzVng47Cbo7u+bisZMZiu0grJKg=
-----END CERTIFICATE-----
