Certificate:
    Data:
        Version: 3 (0x2)
        Serial Number: 4099 (0x1003)
        Signature Algorithm: sha256WithRSAEncryption
        Issuer: C=AU, ST=Some-State, O=Internet Widgits Pty Ltd
        Validity
            Not Before: Oct 23 13:23:11 2023 GMT
            Not After : Oct 20 13:23:11 2033 GMT
        Subject: C=US, O=CentralSouthUniversity Inc., CN=www.csulogin.com
        Subject Public Key Info:
            Public Key Algorithm: rsaEncryption
                RSA Public-Key: (2048 bit)
                Modulus:
                    00:c1:82:38:3f:45:60:09:40:a4:bc:db:10:3a:38:
                    c7:20:58:84:71:dd:aa:1e:cb:91:47:64:c2:65:87:
                    42:c8:ea:fb:3b:d3:76:bd:f3:c1:0b:22:2d:02:d9:
                    e0:f4:dc:a3:81:be:a4:40:17:6b:f6:24:e4:73:3e:
                    b6:7e:ae:54:2d:6f:83:91:56:04:a2:3e:72:6c:47:
                    d4:fd:10:07:b9:4a:16:ac:78:4d:f9:3f:aa:ec:99:
                    21:f4:21:e6:64:cd:fc:ef:01:55:c1:b4:a1:90:c5:
                    b1:4c:8c:53:f2:ff:be:1c:e8:08:ca:90:78:1c:10:
                    b5:88:ee:e8:61:79:d5:3e:e4:98:b1:4e:44:65:bd:
                    66:a8:51:43:30:f2:c0:41:a1:57:12:47:df:04:12:
                    4e:28:db:ed:ba:7a:c5:f4:f1:b8:f8:34:b2:2c:5b:
                    c2:7a:38:c8:7d:f5:d7:cc:19:2a:f5:85:2a:5b:a2:
                    0f:e7:28:0c:41:2c:29:ea:e0:19:be:6d:85:9f:02:
                    7e:ca:b4:45:02:2f:64:06:54:d5:95:55:be:aa:af:
                    41:57:d9:55:1b:0e:a1:b5:49:d0:4d:ee:14:ed:d2:
                    fa:98:e8:15:d6:24:1f:64:94:09:84:50:b2:1a:6f:
                    90:2f:b0:67:2c:e2:3f:bc:be:91:f0:61:d3:24:c1:
                    d1:35
                Exponent: 65537 (0x10001)
        X509v3 extensions:
            X509v3 Basic Constraints: 
                CA:FALSE
            Netscape Comment: 
                OpenSSL Generated Certificate
            X509v3 Subject Key Identifier: 
                60:A6:A9:17:4A:E2:89:D1:3A:AF:7B:52:AA:1F:F3:B7:EA:70:F5:3F
            X509v3 Authority Key Identifier: 
                keyid:DF:00:3B:28:22:4A:1A:43:CA:AD:34:AC:29:78:4A:F3:C6:7D:9C:0A

    Signature Algorithm: sha256WithRSAEncryption
         2e:1a:51:7f:cd:1b:28:75:02:f4:d7:03:62:e5:e3:26:3b:2a:
         f5:99:4f:cf:f4:74:a4:f5:9d:68:fc:79:c4:13:a1:3d:89:74:
         27:86:62:51:1a:c2:fa:91:90:fc:50:0b:a0:ac:d1:eb:4e:e7:
         41:4a:44:7d:79:cb:0c:42:7a:7f:d0:b2:da:25:a5:69:6a:c3:
         68:17:81:79:0c:7d:6c:de:dc:89:45:c8:63:cb:1f:7b:73:90:
         b2:c8:e3:5f:95:3c:4c:60:df:54:e6:58:29:94:c2:1f:94:74:
         a2:fb:99:4c:ba:24:77:25:44:88:3e:14:93:fa:a9:54:f1:3e:
         1f:7a:39:54:d0:aa:77:f4:18:e7:cb:aa:00:a7:f5:b1:b4:aa:
         a8:31:15:d9:27:6f:fb:17:ed:0e:94:0f:0f:e0:f9:c7:f6:d0:
         d1:17:f0:42:74:f1:b4:f0:bc:e4:95:d8:9f:9e:89:03:38:bd:
         40:24:52:64:57:ff:d3:93:5f:25:76:cc:a3:be:e1:95:89:ec:
         43:7e:48:9a:70:0c:15:0f:2b:8f:60:20:b5:2e:90:aa:1a:b7:
         22:74:2c:5c:61:da:aa:44:0b:75:af:d5:f1:4d:fc:e8:8b:d9:
         ca:d9:b3:d9:e6:9d:12:82:5c:d8:14:4f:27:12:32:be:ad:f0:
         15:e8:69:df:30:72:fe:42:61:1a:ff:00:79:ce:ed:80:9b:29:
         da:de:77:e5:b6:6c:7d:12:7a:ae:8c:8a:f9:ea:e2:d8:8f:12:
         a4:a5:3e:bf:1b:1a:84:e9:39:31:a3:2e:4b:21:40:eb:ac:fa:
         7d:9e:ea:63:ee:a5:d8:c8:b2:e3:87:6f:48:6a:82:8d:f8:be:
         b0:c6:1e:34:06:8a:2a:f3:60:57:81:7c:38:d8:36:c5:6a:b7:
         aa:53:94:53:17:1e:b2:25:be:6f:6a:d6:5d:ba:a8:57:59:3b:
         b5:6d:3e:fd:23:2e:be:c6:05:8f:fd:06:81:fb:27:d7:e6:da:
         b9:e0:de:12:2c:37:44:8a:ef:13:72:67:e6:29:01:cf:93:40:
         e6:5f:f4:ad:f8:11:e7:f1:b8:17:92:13:25:8e:fe:29:61:9f:
         58:cc:43:50:20:50:b4:56:5e:07:c5:6f:dd:f0:8d:a3:6c:d3:
         da:6e:61:44:30:c5:89:48:9f:02:3d:74:35:94:b6:72:7c:50:
         2d:b2:e1:c2:bd:86:ef:75:83:fd:37:98:f6:12:b0:b6:a5:9d:
         4b:4e:e2:e8:53:e6:c0:d3:db:b7:f5:7e:6f:36:fb:a7:fc:1c:
         d9:34:18:dd:1a:d4:96:d1:a3:90:24:c0:13:b4:30:6f:fc:24:
         01:c2:36:0a:79:22:10:93
-----BEGIN CERTIFICATE-----
MIIEijCCAnKgAwIBAgICEAMwDQYJKoZIhvcNAQELBQAwRTELMAkGA1UEBhMCQVUx
EzARBgNVBAgMClNvbWUtU3RhdGUxITAfBgNVBAoMGEludGVybmV0IFdpZGdpdHMg
UHR5IEx0ZDAeFw0yMzEwMjMxMzIzMTFaFw0zMzEwMjAxMzIzMTFaME4xCzAJBgNV
BAYTAlVTMSQwIgYDVQQKDBtDZW50cmFsU291dGhVbml2ZXJzaXR5IEluYy4xGTAX
BgNVBAMMEHd3dy5jc3Vsb2dpbi5jb20wggEiMA0GCSqGSIb3DQEBAQUAA4IBDwAw
ggEKAoIBAQDBgjg/RWAJQKS82xA6OMcgWIRx3aoey5FHZMJlh0LI6vs703a988EL
Ii0C2eD03KOBvqRAF2v2JORzPrZ+rlQtb4ORVgSiPnJsR9T9EAe5ShaseE35P6rs
mSH0IeZkzfzvAVXBtKGQxbFMjFPy/74c6AjKkHgcELWI7uhhedU+5JixTkRlvWao
UUMw8sBBoVcSR98EEk4o2+26esX08bj4NLIsW8J6OMh99dfMGSr1hSpbog/nKAxB
LCnq4Bm+bYWfAn7KtEUCL2QGVNWVVb6qr0FX2VUbDqG1SdBN7hTt0vqY6BXWJB9k
lAmEULIab5AvsGcs4j+8vpHwYdMkwdE1AgMBAAGjezB5MAkGA1UdEwQCMAAwLAYJ
YIZIAYb4QgENBB8WHU9wZW5TU0wgR2VuZXJhdGVkIENlcnRpZmljYXRlMB0GA1Ud
DgQWBBRgpqkXSuKJ0Tqve1KqH/O36nD1PzAfBgNVHSMEGDAWgBTfADsoIkoaQ8qt
NKwpeErzxn2cCjANBgkqhkiG9w0BAQsFAAOCAgEALhpRf80bKHUC9NcDYuXjJjsq
9ZlPz/R0pPWdaPx5xBOhPYl0J4ZiURrC+pGQ/FALoKzR607nQUpEfXnLDEJ6f9Cy
2iWlaWrDaBeBeQx9bN7ciUXIY8sfe3OQssjjX5U8TGDfVOZYKZTCH5R0ovuZTLok
dyVEiD4Uk/qpVPE+H3o5VNCqd/QY58uqAKf1sbSqqDEV2Sdv+xftDpQPD+D5x/bQ
0RfwQnTxtPC85JXYn56JAzi9QCRSZFf/05NfJXbMo77hlYnsQ35ImnAMFQ8rj2Ag
tS6Qqhq3InQsXGHaqkQLda/V8U386IvZytmz2eadEoJc2BRPJxIyvq3wFehp3zBy
/kJhGv8Aec7tgJsp2t535bZsfRJ6royK+eri2I8SpKU+vxsahOk5MaMuSyFA66z6
fZ7qY+6l2Miy44dvSGqCjfi+sMYeNAaKKvNgV4F8ONg2xWq3qlOUUxcesiW+b2rW
XbqoV1k7tW0+/SMuvsYFj/0Ggfsn1+baueDeEiw3RIrvE3Jn5ikBz5NA5l/0rfgR
5/G4F5ITJY7+KWGfWMxDUCBQtFZeB8Vv3fCNo2zT2m5hRDDFiUifAj10NZS2cnxQ
LbLhwr2G73WD/TeY9hKwtqWdS07i6FPmwNPbt/V+bzb7p/wc2TQY3RrUltGjkCTA
E7Qwb/wkAcI2CnkiEJM=
-----END CERTIFICATE-----
