Certificate:
    Data:
        Version: 3 (0x2)
        Serial Number: 4100 (0x1004)
        Signature Algorithm: sha256WithRSAEncryption
        Issuer: C=AU, ST=Some-State, O=Internet Widgits Pty Ltd
        Validity
            Not Before: Oct 23 14:00:02 2023 GMT
            Not After : Oct 20 14:00:02 2033 GMT
        Subject: C=US, O=CentralSouthUniversity Inc., CN=csujwc.its.csu.edu.cn
        Subject Public Key Info:
            Public Key Algorithm: rsaEncryption
                RSA Public-Key: (2048 bit)
                Modulus:
                    00:e8:8b:ea:89:a2:d8:f7:4d:fa:fe:fa:7a:39:8c:
                    70:f8:b2:40:72:40:89:1f:22:05:68:17:b1:3a:14:
                    90:3e:79:25:83:df:65:7c:7d:c6:36:9a:da:f2:ca:
                    34:6b:95:e7:c8:ed:27:22:4c:ee:17:77:82:8c:47:
                    09:52:bd:48:17:c4:15:e6:c3:3d:e1:cf:4d:79:46:
                    a8:cc:09:d5:b5:9c:31:f8:f3:da:70:ba:1d:b5:c0:
                    08:2a:8b:8b:77:c0:61:43:e5:fc:71:4f:52:2c:1d:
                    f1:db:d0:21:ef:c9:45:68:49:f5:71:62:a8:04:8b:
                    1a:f0:8e:4a:3c:06:e0:04:d4:b1:44:58:b1:89:94:
                    02:17:00:ef:df:3f:1e:9a:62:0d:25:78:09:50:97:
                    22:51:0c:01:f6:29:d4:e6:c8:91:5a:84:01:3a:06:
                    3b:24:04:f8:b9:1f:0c:72:51:ed:ac:b3:d5:03:0b:
                    8f:7f:bc:30:c9:74:ae:b4:ab:e6:ad:79:89:fd:2a:
                    dc:67:ac:f2:19:22:63:bd:a6:61:92:4f:cc:b4:cb:
                    cd:e8:2e:44:56:40:87:8e:5b:bc:03:e8:23:1d:51:
                    10:db:4c:b5:b6:ce:01:49:e9:3e:f9:d1:ab:70:01:
                    53:e7:ae:f9:1b:39:61:c1:c5:0b:e0:86:0e:fb:84:
                    70:af
                Exponent: 65537 (0x10001)
        X509v3 extensions:
            X509v3 Basic Constraints: 
                CA:FALSE
            Netscape Comment: 
                OpenSSL Generated Certificate
            X509v3 Subject Key Identifier: 
                EC:4B:9E:A7:13:31:71:26:43:BF:63:D4:46:4B:50:03:11:97:AB:3B
            X509v3 Authority Key Identifier: 
                keyid:DF:00:3B:28:22:4A:1A:43:CA:AD:34:AC:29:78:4A:F3:C6:7D:9C:0A

    Signature Algorithm: sha256WithRSAEncryption
         11:8e:02:a0:42:ef:b3:08:61:83:05:8b:2e:fa:fa:2a:9f:a1:
         25:29:79:74:06:34:ea:12:34:93:d0:9c:8f:b5:38:16:76:53:
         56:2e:c7:41:5d:79:6a:a5:a6:65:14:f9:3d:64:65:c3:0f:00:
         0c:d2:f8:f8:3e:05:26:13:5a:24:ed:fc:59:03:b8:11:a2:86:
         2b:eb:39:a7:06:e2:73:89:04:87:2f:97:75:9f:6a:65:8c:c7:
         9a:47:b4:09:c0:0f:69:5c:16:90:07:42:65:69:e8:e0:5a:18:
         9e:a6:5b:27:2e:a5:e8:37:a4:fe:e9:d1:90:26:10:b7:45:b1:
         c7:47:fa:20:eb:0d:ca:d3:1c:93:df:82:45:56:b2:08:15:f6:
         31:bf:21:54:cc:dd:4b:a4:ea:a9:f5:16:a2:c5:01:54:5f:17:
         57:5d:d9:4f:8a:e7:d1:53:90:b2:77:20:3a:de:c2:c8:ff:af:
         b8:de:20:8c:64:70:ab:1e:bc:b7:14:09:31:e0:66:31:0e:5b:
         1d:34:58:45:fe:76:b0:b4:aa:80:e8:a1:5b:51:ab:5c:ac:cf:
         13:7c:22:f8:fe:31:65:2e:96:a5:e8:43:39:d9:66:22:12:88:
         d2:c4:a9:ea:4c:e8:b7:4f:dd:e6:06:e7:47:ed:ce:2c:67:5e:
         39:c0:cd:f9:1a:08:f4:f8:df:08:c5:a8:1f:ca:5f:48:c6:2c:
         4d:a0:26:d5:f8:e7:c6:f3:ce:e7:82:ef:0c:a7:db:14:0b:83:
         8f:07:fb:01:b8:62:9d:06:f3:99:4e:48:7f:bb:e8:49:a1:93:
         4d:d1:b7:db:18:f0:1e:79:3b:ee:1f:fd:95:8c:65:47:bd:66:
         fb:54:ea:69:51:ba:dd:05:9b:70:5e:6e:fc:70:f2:06:55:78:
         c4:0d:ca:db:1e:d0:ed:f7:af:19:1d:2a:38:dc:39:51:3f:e1:
         19:5b:3b:e8:b9:1b:4d:49:ef:d0:d8:18:0b:f2:b4:72:ae:fb:
         09:e9:6a:6b:9e:1a:b9:78:32:c6:5a:67:93:35:d7:94:ec:28:
         ac:c9:33:e5:28:7c:c5:d7:5f:79:38:13:2b:7d:70:00:ad:df:
         b3:63:12:d2:8a:3f:fe:e9:8d:c2:e0:41:26:59:1c:c9:b8:34:
         11:78:ca:91:7b:57:78:7b:59:29:f2:fa:a0:9f:bd:90:93:f8:
         8f:dd:c4:4b:c9:9b:a4:11:06:14:49:31:97:4d:a9:a3:2f:28:
         f4:9d:9f:0f:83:0e:a9:3d:a4:f0:45:a9:49:7c:f0:f0:11:bf:
         f0:d9:f3:cd:d1:c8:00:42:49:28:a3:c5:72:a2:99:c3:81:5e:
         e2:e3:7e:6f:02:33:6f:e0
-----BEGIN CERTIFICATE-----
MIIEjzCCAnegAwIBAgICEAQwDQYJKoZIhvcNAQELBQAwRTELMAkGA1UEBhMCQVUx
EzARBgNVBAgMClNvbWUtU3RhdGUxITAfBgNVBAoMGEludGVybmV0IFdpZGdpdHMg
UHR5IEx0ZDAeFw0yMzEwMjMxNDAwMDJaFw0zMzEwMjAxNDAwMDJaMFMxCzAJBgNV
BAYTAlVTMSQwIgYDVQQKDBtDZW50cmFsU291dGhVbml2ZXJzaXR5IEluYy4xHjAc
BgNVBAMMFWNzdWp3Yy5pdHMuY3N1LmVkdS5jbjCCASIwDQYJKoZIhvcNAQEBBQAD
ggEPADCCAQoCggEBAOiL6omi2PdN+v76ejmMcPiyQHJAiR8iBWgXsToUkD55JYPf
ZXx9xjaa2vLKNGuV58jtJyJM7hd3goxHCVK9SBfEFebDPeHPTXlGqMwJ1bWcMfjz
2nC6HbXACCqLi3fAYUPl/HFPUiwd8dvQIe/JRWhJ9XFiqASLGvCOSjwG4ATUsURY
sYmUAhcA798/HppiDSV4CVCXIlEMAfYp1ObIkVqEAToGOyQE+LkfDHJR7ayz1QML
j3+8MMl0rrSr5q15if0q3Ges8hkiY72mYZJPzLTLzeguRFZAh45bvAPoIx1RENtM
tbbOAUnpPvnRq3ABU+eu+Rs5YcHFC+CGDvuEcK8CAwEAAaN7MHkwCQYDVR0TBAIw
ADAsBglghkgBhvhCAQ0EHxYdT3BlblNTTCBHZW5lcmF0ZWQgQ2VydGlmaWNhdGUw
HQYDVR0OBBYEFOxLnqcTMXEmQ79j1EZLUAMRl6s7MB8GA1UdIwQYMBaAFN8AOygi
ShpDyq00rCl4SvPGfZwKMA0GCSqGSIb3DQEBCwUAA4ICAQARjgKgQu+zCGGDBYsu
+voqn6ElKXl0BjTqEjST0JyPtTgWdlNWLsdBXXlqpaZlFPk9ZGXDDwAM0vj4PgUm
E1ok7fxZA7gRooYr6zmnBuJziQSHL5d1n2pljMeaR7QJwA9pXBaQB0JlaejgWhie
plsnLqXoN6T+6dGQJhC3RbHHR/og6w3K0xyT34JFVrIIFfYxvyFUzN1LpOqp9Rai
xQFUXxdXXdlPiufRU5CydyA63sLI/6+43iCMZHCrHry3FAkx4GYxDlsdNFhF/naw
tKqA6KFbUatcrM8TfCL4/jFlLpal6EM52WYiEojSxKnqTOi3T93mBudH7c4sZ145
wM35Ggj0+N8Ixagfyl9IxixNoCbV+OfG887ngu8Mp9sUC4OPB/sBuGKdBvOZTkh/
u+hJoZNN0bfbGPAeeTvuH/2VjGVHvWb7VOppUbrdBZtwXm78cPIGVXjEDcrbHtDt
968ZHSo43DlRP+EZWzvouRtNSe/Q2BgL8rRyrvsJ6Wprnhq5eDLGWmeTNdeU7Cis
yTPlKHzF1195OBMrfXAArd+zYxLSij/+6Y3C4EEmWRzJuDQReMqRe1d4e1kp8vqg
n72Qk/iP3cRLyZukEQYUSTGXTamjLyj0nZ8Pgw6pPaTwRalJfPDwEb/w2fPN0cgA
Qkkoo8VyopnDgV7i435vAjNv4A==
-----END CERTIFICATE-----
