Certificate:
    Data:
        Version: 3 (0x2)
        Serial Number: 4101 (0x1005)
        Signature Algorithm: sha256WithRSAEncryption
        Issuer: C=AU, ST=Some-State, O=Internet Widgits Pty Ltd
        Validity
            Not Before: Oct 23 15:10:11 2023 GMT
            Not After : Oct 20 15:10:11 2033 GMT
        Subject: C=US, CN=www.yingteach.com
        Subject Public Key Info:
            Public Key Algorithm: rsaEncryption
                RSA Public-Key: (2048 bit)
                Modulus:
                    00:9c:2f:af:ad:90:67:86:32:db:11:04:11:7a:ad:
                    51:09:81:c2:b7:b0:bc:3b:65:ee:f2:45:59:87:37:
                    50:06:54:e9:ec:22:cb:84:2a:38:b9:ee:48:23:ec:
                    ca:74:d4:a1:1a:f0:24:65:5e:b3:65:83:c7:1e:11:
                    1c:31:92:fe:b0:84:f8:6a:d7:65:e9:11:ff:b1:df:
                    7d:3b:6b:63:8f:0f:d9:ac:cb:8d:87:17:ee:82:88:
                    eb:d6:1b:a0:f2:bf:ba:29:69:d3:00:7c:f4:e7:c6:
                    64:73:e3:fe:87:9f:e6:8f:07:95:c9:2d:8d:e5:f9:
                    02:54:60:35:0b:c7:b5:33:4e:71:0f:f8:18:73:76:
                    70:1e:47:23:0c:34:7a:c4:40:97:e4:ee:d2:5f:b2:
                    63:65:dd:62:01:62:fa:5b:f6:9a:70:7c:78:e6:df:
                    48:77:82:20:24:ff:f8:a0:58:88:0e:ab:e1:57:17:
                    2b:08:33:59:43:99:da:34:fd:05:1a:24:d0:f9:81:
                    6c:b0:29:54:00:3b:ff:f2:62:a9:0c:bf:e9:69:56:
                    f7:04:af:3b:7b:29:6e:b9:a6:0d:f7:10:e3:87:31:
                    6c:85:b9:f8:98:64:b2:87:4e:b2:1f:fc:3e:01:f6:
                    25:14:26:ac:0a:cf:b1:95:a9:74:31:28:82:0c:6f:
                    d0:c1
                Exponent: 65537 (0x10001)
        X509v3 extensions:
            X509v3 Basic Constraints: 
                CA:FALSE
            Netscape Comment: 
                OpenSSL Generated Certificate
            X509v3 Subject Key Identifier: 
                2A:56:12:9A:D1:2D:14:43:B1:3A:6F:62:99:D9:DE:E3:B7:CC:72:B6
            X509v3 Authority Key Identifier: 
                keyid:DF:00:3B:28:22:4A:1A:43:CA:AD:34:AC:29:78:4A:F3:C6:7D:9C:0A

    Signature Algorithm: sha256WithRSAEncryption
         2a:ea:b3:ed:ea:96:9f:89:85:26:1f:37:f9:28:b5:84:49:c8:
         3c:76:f7:d9:11:3f:6c:3e:93:da:4f:c6:09:51:b2:f6:a6:29:
         77:a0:64:aa:78:0e:02:59:c1:84:15:5d:c9:83:76:db:9f:fe:
         74:3d:13:dd:8f:80:0b:59:02:e2:9a:a9:23:83:f2:6c:d2:a3:
         b5:07:bd:11:63:50:30:8b:68:cd:a4:a8:4f:b8:f1:c4:25:78:
         7c:0b:88:13:da:35:a1:67:98:54:22:20:29:02:29:bf:d2:5c:
         bd:b4:dd:88:ee:52:80:c3:b5:97:ba:32:2a:58:62:f7:5c:e4:
         1a:45:cd:f0:fe:57:c8:ad:48:e8:86:99:86:3a:57:27:a1:a8:
         5d:0e:12:a3:80:7c:5b:51:9d:79:17:2d:8e:c3:7b:1f:e7:12:
         f7:2e:f2:ca:1a:9d:e3:01:bd:32:c1:6c:4a:12:b8:39:59:33:
         f1:39:c4:3f:c3:5c:dc:16:b9:46:03:dd:35:6c:ab:95:9f:1d:
         0b:e4:88:30:cb:4b:0b:2c:0d:4d:ad:72:d9:d5:6e:02:e7:7d:
         4c:34:c8:aa:c8:c2:2f:68:b9:16:0b:47:49:36:3a:37:0f:a5:
         a6:df:e6:78:ca:3f:63:b1:d7:f7:24:d5:f1:b3:ce:9d:11:75:
         77:5c:eb:83:32:3d:05:9e:e6:51:c9:82:b5:ed:ad:6b:79:ac:
         d7:6e:0b:38:0d:b4:25:f0:dd:e5:07:e1:71:76:d8:3e:32:e2:
         e0:39:60:e2:b7:31:6c:6b:29:67:f4:08:68:f7:ff:7d:d2:22:
         f8:07:f7:ac:b9:d4:b5:8f:2e:d0:7f:8c:f3:72:e5:9f:da:8d:
         ed:42:35:c3:7b:c1:42:33:fc:57:78:14:4c:7d:a1:3e:4f:cd:
         0f:b7:9c:2d:73:e3:16:29:38:15:56:84:9a:ac:cf:6e:03:19:
         66:a7:73:33:9f:50:23:a6:8f:c3:d6:bc:c6:bd:97:5c:96:8c:
         1b:e4:f3:5f:e1:6e:b0:30:bd:ec:90:e3:fc:2b:e6:e2:ad:4f:
         39:56:f9:de:19:b5:22:a8:68:42:34:a2:c2:e9:c9:30:dd:98:
         0d:4a:78:ad:95:e3:9e:08:8a:d8:5b:c8:21:6f:1b:40:c1:dc:
         fa:49:f4:38:17:f7:c5:ba:e6:5f:08:fb:a8:e9:1b:cc:d2:89:
         33:c5:2d:53:3e:7c:17:ad:e6:27:44:59:46:bf:a8:e9:6c:e7:
         3f:a9:68:5e:98:ed:d5:99:2e:b7:f0:fc:f8:21:d1:ec:2b:65:
         34:4e:b8:9e:54:1a:c3:31:ea:fc:ca:2c:02:90:6d:99:ea:9a:
         3c:ac:26:be:a3:57:a4:2b
-----BEGIN CERTIFICATE-----
MIIEZTCCAk2gAwIBAgICEAUwDQYJKoZIhvcNAQELBQAwRTELMAkGA1UEBhMCQVUx
EzARBgNVBAgMClNvbWUtU3RhdGUxITAfBgNVBAoMGEludGVybmV0IFdpZGdpdHMg
UHR5IEx0ZDAeFw0yMzEwMjMxNTEwMTFaFw0zMzEwMjAxNTEwMTFaMCkxCzAJBgNV
BAYTAlVTMRowGAYDVQQDDBF3d3cueWluZ3RlYWNoLmNvbTCCASIwDQYJKoZIhvcN
AQEBBQADggEPADCCAQoCggEBAJwvr62QZ4Yy2xEEEXqtUQmBwrewvDtl7vJFWYc3
UAZU6ewiy4QqOLnuSCPsynTUoRrwJGVes2WDxx4RHDGS/rCE+GrXZekR/7HffTtr
Y48P2azLjYcX7oKI69YboPK/uilp0wB89OfGZHPj/oef5o8HlcktjeX5AlRgNQvH
tTNOcQ/4GHN2cB5HIww0esRAl+Tu0l+yY2XdYgFi+lv2mnB8eObfSHeCICT/+KBY
iA6r4VcXKwgzWUOZ2jT9BRok0PmBbLApVAA7//JiqQy/6WlW9wSvO3spbrmmDfcQ
44cxbIW5+JhksodOsh/8PgH2JRQmrArPsZWpdDEoggxv0MECAwEAAaN7MHkwCQYD
VR0TBAIwADAsBglghkgBhvhCAQ0EHxYdT3BlblNTTCBHZW5lcmF0ZWQgQ2VydGlm
aWNhdGUwHQYDVR0OBBYEFCpWEprRLRRDsTpvYpnZ3uO3zHK2MB8GA1UdIwQYMBaA
FN8AOygiShpDyq00rCl4SvPGfZwKMA0GCSqGSIb3DQEBCwUAA4ICAQAq6rPt6paf
iYUmHzf5KLWEScg8dvfZET9sPpPaT8YJUbL2pil3oGSqeA4CWcGEFV3Jg3bbn/50
PRPdj4ALWQLimqkjg/Js0qO1B70RY1Awi2jNpKhPuPHEJXh8C4gT2jWhZ5hUIiAp
Aim/0ly9tN2I7lKAw7WXujIqWGL3XOQaRc3w/lfIrUjohpmGOlcnoahdDhKjgHxb
UZ15Fy2Ow3sf5xL3LvLKGp3jAb0ywWxKErg5WTPxOcQ/w1zcFrlGA901bKuVnx0L
5Igwy0sLLA1NrXLZ1W4C531MNMiqyMIvaLkWC0dJNjo3D6Wm3+Z4yj9jsdf3JNXx
s86dEXV3XOuDMj0FnuZRyYK17a1reazXbgs4DbQl8N3lB+Fxdtg+MuLgOWDitzFs
ayln9Aho9/990iL4B/esudS1jy7Qf4zzcuWf2o3tQjXDe8FCM/xXeBRMfaE+T80P
t5wtc+MWKTgVVoSarM9uAxlmp3Mzn1Ajpo/D1rzGvZdclowb5PNf4W6wML3skOP8
K+birU85VvneGbUiqGhCNKLC6ckw3ZgNSnitleOeCIrYW8ghbxtAwdz6SfQ4F/fF
uuZfCPuo6RvM0okzxS1TPnwXreYnRFlGv6jpbOc/qWhemO3VmS638Pz4IdHsK2U0
TrieVBrDMer8yiwCkG2Z6po8rCa+o1ekKw==
-----END CERTIFICATE-----
