Certificate:
    Data:
        Version: 3 (0x2)
        Serial Number: 4102 (0x1006)
        Signature Algorithm: sha256WithRSAEncryption
        Issuer: C=AU, ST=Some-State, O=Internet Widgits Pty Ltd
        Validity
            Not Before: Oct 23 15:55:04 2023 GMT
            Not After : Oct 20 15:55:04 2033 GMT
        Subject: C=US, O=CentralSouthUniversity Inc., CN=csujwc.its.csu.edu.cn
        Subject Public Key Info:
            Public Key Algorithm: rsaEncryption
                RSA Public-Key: (2048 bit)
                Modulus:
                    00:94:11:2f:a0:7a:a9:f5:4d:2d:55:0d:02:90:56:
                    0f:44:7f:e1:f9:e3:6a:98:bc:75:15:44:1f:e7:ed:
                    34:80:3c:12:1e:54:04:c0:62:49:53:f4:50:4c:25:
                    ca:dd:a7:13:8f:9c:54:74:98:75:a7:d0:b3:ce:30:
                    9c:49:6c:4e:de:db:60:25:96:ab:83:69:42:93:bc:
                    ee:e0:df:4b:66:2c:12:2e:71:8e:c2:61:d9:5d:b4:
                    03:fd:cc:77:2e:a9:0c:b1:aa:22:d7:fc:b1:79:7b:
                    35:5d:88:71:74:42:ab:d1:bc:00:da:67:49:93:c7:
                    5d:73:ee:3e:45:b2:5d:30:14:f9:ec:45:ac:60:c8:
                    4e:a7:7c:7b:90:06:91:5b:c5:e5:7e:21:d3:ee:35:
                    bf:5d:b4:7d:3f:94:d1:80:97:19:1f:1a:e2:f4:15:
                    82:b5:98:dd:d6:63:1c:57:07:aa:4b:48:0c:17:af:
                    81:bd:68:08:13:45:d0:7a:b3:00:2b:f3:37:25:47:
                    03:bb:f4:ea:bd:e9:fe:fc:62:60:df:0b:4a:0b:37:
                    d6:ea:e4:f1:70:a8:cb:44:8f:b7:36:ff:33:0b:bd:
                    13:fe:1d:0e:c7:b3:86:42:35:19:cf:91:3f:cb:c1:
                    32:5e:74:46:26:bf:70:ce:e7:a7:88:43:9a:04:51:
                    d5:a3
                Exponent: 65537 (0x10001)
        X509v3 extensions:
            X509v3 Basic Constraints: 
                CA:FALSE
            Netscape Comment: 
                OpenSSL Generated Certificate
            X509v3 Subject Key Identifier: 
                A4:E7:63:1F:E1:2F:DC:C0:EF:99:1E:89:63:88:DB:49:1C:F1:56:7C
            X509v3 Authority Key Identifier: 
                keyid:DF:00:3B:28:22:4A:1A:43:CA:AD:34:AC:29:78:4A:F3:C6:7D:9C:0A

    Signature Algorithm: sha256WithRSAEncryption
         96:7c:4f:a9:b0:08:59:0a:c7:30:85:f6:1d:9f:0b:2c:88:2a:
         25:af:66:af:08:2d:8d:63:c3:11:06:38:5b:6e:01:16:23:93:
         f5:f5:6c:3f:a8:4d:34:db:c4:86:0c:5b:9c:f7:ef:7b:da:4a:
         aa:bc:e7:63:9c:87:95:e0:b7:f7:79:4d:94:b9:72:e6:0d:d7:
         8b:68:64:97:83:ab:7a:7c:4b:23:09:0e:ca:99:ea:c3:11:23:
         87:23:28:f0:eb:6f:ca:a4:51:d3:ae:66:74:bd:7c:e5:71:24:
         29:ea:38:a2:09:80:ab:44:5c:35:03:a6:9a:d6:4d:00:64:7f:
         95:82:8d:cb:0f:21:15:94:38:e6:fa:6d:f5:23:d6:b8:52:db:
         11:cb:d4:21:a5:da:9c:19:22:76:d9:32:27:0d:e8:1c:52:43:
         77:d5:fb:f6:84:ea:ec:2a:f9:50:13:1f:54:54:f5:58:75:ef:
         b8:51:7f:7d:ef:75:f3:83:ea:4f:5e:ac:9e:96:66:09:99:bf:
         82:f2:2e:77:2c:53:15:a6:29:88:27:49:ea:7d:bd:d8:6c:1c:
         b2:4a:09:ed:a5:e9:fa:bd:9e:1d:ce:37:0b:4a:c6:f0:ce:13:
         ee:35:86:14:2a:e6:37:ad:32:1e:c5:65:2e:a8:e0:10:63:d5:
         2a:cc:08:d5:3b:b5:2b:77:f1:66:eb:ab:69:95:f4:40:7d:50:
         fe:e7:16:ee:b1:b6:2a:37:ab:91:15:e1:47:83:c6:3f:85:25:
         d5:a5:8c:c4:2d:0a:42:ff:8a:41:5a:c3:bb:2d:8b:ac:b3:58:
         a4:5d:85:42:66:c6:29:4e:f5:d5:0f:5c:1b:7e:0e:c2:a9:80:
         74:69:ab:ab:62:85:49:3d:b7:d2:51:b9:0a:e7:3c:1a:34:1f:
         55:f8:c2:f3:08:c3:f1:72:84:6d:53:5d:1c:8a:bb:2e:3c:19:
         b2:96:b2:30:60:6a:6b:55:04:86:49:d1:17:f8:8b:7e:e7:d0:
         19:03:bd:e0:4d:d0:7c:09:55:d0:2d:7a:ea:8a:11:d1:5e:0c:
         ca:65:ff:f9:1f:eb:71:05:31:b4:94:33:f9:66:fb:60:8e:b3:
         1d:96:ea:31:a5:0e:12:b0:48:4e:43:67:28:66:03:9d:2f:07:
         40:76:c6:50:66:50:eb:0b:4a:ff:37:08:aa:d0:fd:3c:41:17:
         4e:3c:b7:8a:ff:f2:5d:e6:b0:00:97:5c:ff:02:62:bc:d4:81:
         03:85:d8:59:27:a4:c0:fc:13:51:7a:4c:8e:76:c6:67:72:83:
         b5:57:24:02:9a:71:51:f3:d6:49:b2:47:81:e0:4c:0a:ba:80:
         d5:17:6c:8e:f9:78:ed:bb
-----BEGIN CERTIFICATE-----
MIIEjzCCAnegAwIBAgICEAYwDQYJKoZIhvcNAQELBQAwRTELMAkGA1UEBhMCQVUx
EzARBgNVBAgMClNvbWUtU3RhdGUxITAfBgNVBAoMGEludGVybmV0IFdpZGdpdHMg
UHR5IEx0ZDAeFw0yMzEwMjMxNTU1MDRaFw0zMzEwMjAxNTU1MDRaMFMxCzAJBgNV
BAYTAlVTMSQwIgYDVQQKDBtDZW50cmFsU291dGhVbml2ZXJzaXR5IEluYy4xHjAc
BgNVBAMMFWNzdWp3Yy5pdHMuY3N1LmVkdS5jbjCCASIwDQYJKoZIhvcNAQEBBQAD
ggEPADCCAQoCggEBAJQRL6B6qfVNLVUNApBWD0R/4fnjapi8dRVEH+ftNIA8Eh5U
BMBiSVP0UEwlyt2nE4+cVHSYdafQs84wnElsTt7bYCWWq4NpQpO87uDfS2YsEi5x
jsJh2V20A/3Mdy6pDLGqItf8sXl7NV2IcXRCq9G8ANpnSZPHXXPuPkWyXTAU+exF
rGDITqd8e5AGkVvF5X4h0+41v120fT+U0YCXGR8a4vQVgrWY3dZjHFcHqktIDBev
gb1oCBNF0HqzACvzNyVHA7v06r3p/vxiYN8LSgs31urk8XCoy0SPtzb/Mwu9E/4d
DsezhkI1Gc+RP8vBMl50Ria/cM7np4hDmgRR1aMCAwEAAaN7MHkwCQYDVR0TBAIw
ADAsBglghkgBhvhCAQ0EHxYdT3BlblNTTCBHZW5lcmF0ZWQgQ2VydGlmaWNhdGUw
HQYDVR0OBBYEFKTnYx/hL9zA75keiWOI20kc8VZ8MB8GA1UdIwQYMBaAFN8AOygi
ShpDyq00rCl4SvPGfZwKMA0GCSqGSIb3DQEBCwUAA4ICAQCWfE+psAhZCscwhfYd
nwssiColr2avCC2NY8MRBjhbbgEWI5P19Ww/qE0028SGDFuc9+972kqqvOdjnIeV
4Lf3eU2UuXLmDdeLaGSXg6t6fEsjCQ7KmerDESOHIyjw62/KpFHTrmZ0vXzlcSQp
6jiiCYCrRFw1A6aa1k0AZH+Vgo3LDyEVlDjm+m31I9a4UtsRy9QhpdqcGSJ22TIn
DegcUkN31fv2hOrsKvlQEx9UVPVYde+4UX9973Xzg+pPXqyelmYJmb+C8i53LFMV
pimIJ0nqfb3YbByySgntpen6vZ4dzjcLSsbwzhPuNYYUKuY3rTIexWUuqOAQY9Uq
zAjVO7Urd/Fm66tplfRAfVD+5xbusbYqN6uRFeFHg8Y/hSXVpYzELQpC/4pBWsO7
LYuss1ikXYVCZsYpTvXVD1wbfg7CqYB0aaurYoVJPbfSUbkK5zwaNB9V+MLzCMPx
coRtU10cirsuPBmylrIwYGprVQSGSdEX+It+59AZA73gTdB8CVXQLXrqihHRXgzK
Zf/5H+txBTG0lDP5ZvtgjrMdluoxpQ4SsEhOQ2coZgOdLwdAdsZQZlDrC0r/Nwiq
0P08QRdOPLeK//Jd5rAAl1z/AmK81IEDhdhZJ6TA/BNRekyOdsZncoO1VyQCmnFR
89ZJskeB4EwKuoDVF2yO+Xjtuw==
-----END CERTIFICATE-----
