Certificate:
    Data:
        Version: 3 (0x2)
        Serial Number: 4103 (0x1007)
        Signature Algorithm: sha256WithRSAEncryption
        Issuer: C=AU, ST=Some-State, O=Internet Widgits Pty Ltd
        Validity
            Not Before: Oct 25 15:28:18 2023 GMT
            Not After : Oct 22 15:28:18 2033 GMT
        Subject: C=US, O=xtliucodeforce Inc., CN=codeforces.com
        Subject Public Key Info:
            Public Key Algorithm: rsaEncryption
                RSA Public-Key: (2048 bit)
                Modulus:
                    00:e0:00:da:cb:9c:21:6b:e5:31:fb:54:28:cb:5c:
                    90:40:ba:a3:95:b4:71:a9:19:60:11:d3:d4:9f:78:
                    b2:ee:af:74:f0:14:f4:c4:ef:26:17:83:c4:f0:6c:
                    f1:ae:0b:c0:5e:d6:38:68:cd:fe:3e:88:6c:e2:0f:
                    87:61:56:1c:34:04:6d:82:18:21:01:36:2c:37:eb:
                    40:ea:aa:a1:69:db:df:2c:e2:58:ee:c7:8e:67:e6:
                    fc:32:b3:04:a1:cb:37:3d:26:99:ff:c7:0e:e7:c7:
                    93:d0:df:0c:40:fd:9f:4a:00:db:e1:c7:8a:41:19:
                    35:32:47:08:d1:2f:af:ec:af:6a:c2:64:6d:b2:b6:
                    38:28:a0:be:14:66:71:7e:1f:2d:61:76:ea:e0:1d:
                    d5:47:ec:2e:1b:cd:ea:ce:56:8e:07:71:a9:07:a4:
                    3b:89:c0:18:24:1f:a5:16:eb:22:dd:d1:e9:ce:a6:
                    34:d2:9a:ec:00:f8:76:d4:3a:43:79:cc:2a:21:7c:
                    d0:5c:ca:de:f0:c3:ed:88:a4:97:02:24:4a:b9:cf:
                    4f:97:89:f7:5e:6a:11:f6:de:ca:5d:d0:45:8a:1b:
                    2f:13:ea:a9:74:34:bf:41:17:e1:ed:26:48:f9:3c:
                    d2:fb:85:d6:d6:9d:dc:f9:1e:e7:fc:4a:cf:76:a9:
                    aa:5b
                Exponent: 65537 (0x10001)
        X509v3 extensions:
            X509v3 Basic Constraints: 
                CA:FALSE
            Netscape Comment: 
                OpenSSL Generated Certificate
            X509v3 Subject Key Identifier: 
                0A:42:0C:A0:F7:9A:BF:D4:A7:8C:FF:A2:11:E7:7D:B0:98:78:97:12
            X509v3 Authority Key Identifier: 
                keyid:DF:00:3B:28:22:4A:1A:43:CA:AD:34:AC:29:78:4A:F3:C6:7D:9C:0A

    Signature Algorithm: sha256WithRSAEncryption
         8c:d1:76:4c:0e:79:12:8f:33:10:36:6c:39:2d:4c:81:a1:f7:
         fc:46:ec:52:f7:60:e2:63:13:33:45:06:a3:d7:dc:64:22:d4:
         49:40:b5:a8:c5:4a:3d:06:c7:37:0a:eb:75:05:d9:5f:af:5e:
         54:47:e7:16:ae:4f:3e:28:c6:d7:cc:37:09:40:b5:2e:e3:7d:
         5b:33:a6:8c:89:c3:0b:e9:b8:4b:f8:04:fb:d1:8d:f6:c7:1c:
         fe:af:20:d0:e6:ea:da:45:6c:af:c1:9d:dc:4e:41:95:ff:6e:
         da:d5:40:39:15:fa:e7:f4:75:93:6d:f6:a2:9a:94:8b:6c:9a:
         78:c9:2a:6e:83:69:43:f5:da:0c:16:5e:7c:20:ba:f8:2b:23:
         c4:78:ed:fc:57:17:17:92:8c:25:68:f5:3a:31:e7:5f:af:c3:
         2e:6f:07:0d:e3:1c:82:c7:38:2f:39:26:d2:74:cf:e3:c0:b5:
         98:2e:e3:03:4e:94:78:06:c8:72:75:7c:4e:c4:05:6f:f1:86:
         a4:a0:d1:3e:5c:05:03:d7:41:45:cd:2b:19:f4:a1:1e:12:29:
         9f:bd:44:14:be:2b:1d:27:0d:35:a7:31:b7:6b:db:6a:f9:04:
         4f:1b:16:b3:74:72:c1:16:24:c7:23:cc:cb:cb:9f:c6:ab:2f:
         f2:59:7c:78:84:c5:d3:28:2b:12:58:fc:4b:ce:7e:60:7f:d3:
         83:05:04:c4:50:06:e1:20:d7:81:9d:bd:c6:f6:fa:4b:97:a8:
         0e:d4:bb:e8:3c:35:af:44:5c:7e:b5:28:3d:02:50:7b:62:c6:
         48:ac:b0:a2:89:41:25:4a:57:10:87:5f:da:8f:62:23:3b:f0:
         42:01:4e:90:7b:21:1e:24:d8:5d:d6:a6:ae:67:04:a3:ab:04:
         f0:61:75:f5:e6:a3:40:6b:91:93:d5:2e:af:82:5c:b2:c5:77:
         39:36:34:01:42:ab:03:1d:01:78:71:8c:c3:7d:ab:42:dd:a8:
         22:41:ae:b6:81:c4:2e:1a:d5:af:84:8d:11:59:de:35:e4:f9:
         37:e4:ab:54:d5:eb:d5:05:cc:de:44:f9:2c:be:bf:28:83:24:
         b8:a3:b1:ef:2a:58:f8:89:07:7c:dd:e4:2a:f5:59:65:a2:b3:
         3d:e6:7a:32:a2:9f:43:36:79:68:78:dd:08:10:90:97:46:89:
         ef:25:5f:c8:21:b4:6b:79:c1:73:72:62:a5:14:fb:0e:18:70:
         6c:d7:33:51:58:4f:9b:53:5c:21:7c:7e:ca:c3:ed:60:e3:98:
         d5:d9:21:76:41:86:39:ea:8d:e5:f9:8f:c2:1a:77:7b:d7:2f:
         4f:f9:0f:d0:63:cf:b3:58
-----BEGIN CERTIFICATE-----
MIIEgDCCAmigAwIBAgICEAcwDQYJKoZIhvcNAQELBQAwRTELMAkGA1UEBhMCQVUx
EzARBgNVBAgMClNvbWUtU3RhdGUxITAfBgNVBAoMGEludGVybmV0IFdpZGdpdHMg
UHR5IEx0ZDAeFw0yMzEwMjUxNTI4MThaFw0zMzEwMjIxNTI4MThaMEQxCzAJBgNV
BAYTAlVTMRwwGgYDVQQKDBN4dGxpdWNvZGVmb3JjZSBJbmMuMRcwFQYDVQQDDA5j
b2RlZm9yY2VzLmNvbTCCASIwDQYJKoZIhvcNAQEBBQADggEPADCCAQoCggEBAOAA
2sucIWvlMftUKMtckEC6o5W0cakZYBHT1J94su6vdPAU9MTvJheDxPBs8a4LwF7W
OGjN/j6IbOIPh2FWHDQEbYIYIQE2LDfrQOqqoWnb3yziWO7Hjmfm/DKzBKHLNz0m
mf/HDufHk9DfDED9n0oA2+HHikEZNTJHCNEvr+yvasJkbbK2OCigvhRmcX4fLWF2
6uAd1UfsLhvN6s5WjgdxqQekO4nAGCQfpRbrIt3R6c6mNNKa7AD4dtQ6Q3nMKiF8
0FzK3vDD7YiklwIkSrnPT5eJ915qEfbeyl3QRYobLxPqqXQ0v0EX4e0mSPk80vuF
1tad3Pke5/xKz3apqlsCAwEAAaN7MHkwCQYDVR0TBAIwADAsBglghkgBhvhCAQ0E
HxYdT3BlblNTTCBHZW5lcmF0ZWQgQ2VydGlmaWNhdGUwHQYDVR0OBBYEFApCDKD3
mr/Up4z/ohHnfbCYeJcSMB8GA1UdIwQYMBaAFN8AOygiShpDyq00rCl4SvPGfZwK
MA0GCSqGSIb3DQEBCwUAA4ICAQCM0XZMDnkSjzMQNmw5LUyBoff8RuxS92DiYxMz
RQaj19xkItRJQLWoxUo9Bsc3Cut1Bdlfr15UR+cWrk8+KMbXzDcJQLUu431bM6aM
icML6bhL+AT70Y32xxz+ryDQ5uraRWyvwZ3cTkGV/27a1UA5Ffrn9HWTbfaimpSL
bJp4ySpug2lD9doMFl58ILr4KyPEeO38VxcXkowlaPU6Medfr8MubwcN4xyCxzgv
OSbSdM/jwLWYLuMDTpR4BshydXxOxAVv8YakoNE+XAUD10FFzSsZ9KEeEimfvUQU
visdJw01pzG3a9tq+QRPGxazdHLBFiTHI8zLy5/Gqy/yWXx4hMXTKCsSWPxLzn5g
f9ODBQTEUAbhINeBnb3G9vpLl6gO1LvoPDWvRFx+tSg9AlB7YsZIrLCiiUElSlcQ
h1/aj2IjO/BCAU6QeyEeJNhd1qauZwSjqwTwYXX15qNAa5GT1S6vglyyxXc5NjQB
QqsDHQF4cYzDfatC3agiQa62gcQuGtWvhI0RWd415Pk35KtU1evVBczeRPksvr8o
gyS4o7HvKlj4iQd83eQq9VllorM95noyop9DNnloeN0IEJCXRonvJV/IIbRrecFz
cmKlFPsOGHBs1zNRWE+bU1whfH7Kw+1g45jV2SF2QYY56o3l+Y/CGnd71y9P+Q/Q
Y8+zWA==
-----END CERTIFICATE-----
