Certificate:
    Data:
        Version: 3 (0x2)
        Serial Number: 4104 (0x1008)
        Signature Algorithm: sha256WithRSAEncryption
        Issuer: C=AU, ST=Some-State, O=Internet Widgits Pty Ltd
        Validity
            Not Before: Oct 27 07:56:37 2023 GMT
            Not After : Oct 24 07:56:37 2033 GMT
        Subject: C=US, O=xtliucodeforce Inc., CN=codeforces.com
        Subject Public Key Info:
            Public Key Algorithm: rsaEncryption
                RSA Public-Key: (2048 bit)
                Modulus:
                    00:df:d1:4f:ea:84:4d:75:92:f4:d8:6b:f0:2c:58:
                    54:ee:5c:a2:b6:19:0b:e8:e3:00:20:08:40:d5:39:
                    a9:fe:77:91:2a:30:c5:e5:4d:59:48:06:39:28:0d:
                    33:67:63:cc:61:74:07:20:fe:3b:ad:23:b3:16:9d:
                    b9:0a:01:f9:d7:49:68:46:21:71:59:0b:e5:d0:22:
                    77:f2:ac:60:7f:7d:95:5c:4b:65:08:1a:75:f0:91:
                    1b:10:74:40:9b:be:7b:fa:8e:41:f8:22:05:61:1a:
                    a8:24:a4:21:4f:a6:13:9e:11:51:5f:8f:55:12:06:
                    9a:cd:d3:79:bf:33:0d:ea:96:a2:55:7c:c3:75:5c:
                    b0:46:49:bc:d6:1c:e5:2e:2f:e9:31:0f:ff:dc:d6:
                    74:61:c8:5c:b0:4f:d2:d7:d7:e8:83:fd:f8:bf:8d:
                    7a:22:f2:d8:2b:e4:f8:2e:d1:9c:8b:32:47:de:54:
                    60:1a:89:df:49:a1:e5:1e:b4:b5:c6:61:7a:0f:a2:
                    68:21:7c:c2:4e:63:47:0f:85:ff:71:ac:06:c1:b6:
                    5a:de:40:59:d2:b9:c5:e6:6c:9e:47:5c:0f:a2:b4:
                    b6:22:ab:eb:69:75:90:59:3c:35:d5:b7:ce:3d:1d:
                    21:d6:6d:31:73:78:7a:9a:08:6c:82:13:b8:38:a0:
                    da:5b
                Exponent: 65537 (0x10001)
        X509v3 extensions:
            X509v3 Basic Constraints: 
                CA:FALSE
            Netscape Comment: 
                OpenSSL Generated Certificate
            X509v3 Subject Key Identifier: 
                0A:8D:2D:A9:A8:A6:06:31:C1:EB:59:33:BC:C3:A2:6E:31:FA:34:E6
            X509v3 Authority Key Identifier: 
                keyid:DF:00:3B:28:22:4A:1A:43:CA:AD:34:AC:29:78:4A:F3:C6:7D:9C:0A

    Signature Algorithm: sha256WithRSAEncryption
         92:2d:c4:35:62:03:a6:fa:b6:ce:00:7c:4c:47:40:96:81:df:
         f2:16:b3:d4:a4:5a:85:ea:25:f9:7f:ff:de:dd:de:99:70:3b:
         61:62:77:a3:ee:58:63:2b:10:0b:6d:b0:92:c9:29:45:12:4f:
         73:aa:1a:d3:e4:c1:cc:f4:7e:62:ee:5e:12:ad:b5:2a:c7:b7:
         23:13:16:9a:7e:f3:f4:c3:f1:41:a8:4d:e8:2d:e1:9c:1c:8f:
         ee:4b:4d:92:92:ca:67:d2:58:18:73:7a:f1:dc:a4:ba:07:2d:
         43:81:36:d4:29:1d:6f:a9:24:fc:96:4d:02:56:c9:1d:e9:79:
         7b:b9:06:35:76:79:b7:a6:62:98:69:0e:9c:dd:6d:8e:ed:36:
         35:6a:ee:30:0d:16:2a:67:55:ba:66:d9:fb:f3:4b:af:08:fa:
         53:51:a0:c6:3f:1a:cf:bf:0c:f2:74:46:4b:de:20:73:45:6e:
         bb:46:ca:3c:b5:d3:ce:ae:fb:1a:55:1a:c2:77:ed:cf:5a:ae:
         10:05:cb:13:3f:fc:d0:e4:f2:7e:52:91:bb:22:20:8e:39:e3:
         39:a9:23:90:27:f3:48:78:ea:06:a6:aa:80:c2:2d:f2:30:93:
         ab:d1:a7:ca:13:4a:a9:fb:e2:ae:71:05:88:f3:6c:52:79:1c:
         c1:dc:e3:be:b9:41:df:7d:36:9a:d5:a2:24:1e:68:88:6c:0a:
         5d:bd:6d:80:62:7a:30:ba:ff:c0:c2:32:68:b3:e7:d7:e0:cb:
         8b:c8:df:32:2c:57:00:84:d1:49:f8:2f:ea:c3:7f:d9:7f:11:
         74:71:c6:41:1c:d2:49:73:ef:3d:07:a2:53:9a:7c:9e:31:aa:
         7a:e5:1e:13:c3:31:41:4e:55:58:34:cc:c5:93:14:fe:b5:09:
         27:fd:2b:17:cb:c1:8b:07:4c:48:6e:c7:20:17:fd:4f:9a:9e:
         d8:5a:42:b9:d5:8b:5d:78:c5:3b:c3:8b:a1:5d:da:d8:0f:ad:
         4d:be:24:eb:d3:7c:aa:24:49:67:df:fc:d3:17:42:f0:0d:7a:
         52:75:4b:bf:3a:d0:43:3a:5c:1b:f8:2a:3e:60:3f:9e:50:c7:
         66:71:bf:9c:21:8d:8c:3a:db:00:5a:07:36:de:a3:ea:4e:a3:
         b4:c6:61:d5:a7:a3:da:e4:52:be:69:e3:0e:bd:ff:0c:fe:1d:
         ce:b2:a3:cb:15:29:4b:2f:ee:a4:05:e1:cd:48:1a:f1:d8:b8:
         fb:75:5f:d7:9b:b4:66:9c:b7:2f:14:44:a2:06:68:e8:e3:45:
         ca:ef:94:b1:30:67:a5:67:6a:bd:e3:18:8a:e2:42:27:6c:00:
         61:e5:d8:b7:34:ac:00:4b
-----BEGIN CERTIFICATE-----
MIIEgDCCAmigAwIBAgICEAgwDQYJKoZIhvcNAQELBQAwRTELMAkGA1UEBhMCQVUx
EzARBgNVBAgMClNvbWUtU3RhdGUxITAfBgNVBAoMGEludGVybmV0IFdpZGdpdHMg
UHR5IEx0ZDAeFw0yMzEwMjcwNzU2MzdaFw0zMzEwMjQwNzU2MzdaMEQxCzAJBgNV
BAYTAlVTMRwwGgYDVQQKDBN4dGxpdWNvZGVmb3JjZSBJbmMuMRcwFQYDVQQDDA5j
b2RlZm9yY2VzLmNvbTCCASIwDQYJKoZIhvcNAQEBBQADggEPADCCAQoCggEBAN/R
T+qETXWS9Nhr8CxYVO5corYZC+jjACAIQNU5qf53kSowxeVNWUgGOSgNM2djzGF0
ByD+O60jsxaduQoB+ddJaEYhcVkL5dAid/KsYH99lVxLZQgadfCRGxB0QJu+e/qO
QfgiBWEaqCSkIU+mE54RUV+PVRIGms3Teb8zDeqWolV8w3VcsEZJvNYc5S4v6TEP
/9zWdGHIXLBP0tfX6IP9+L+NeiLy2Cvk+C7RnIsyR95UYBqJ30mh5R60tcZheg+i
aCF8wk5jRw+F/3GsBsG2Wt5AWdK5xeZsnkdcD6K0tiKr62l1kFk8NdW3zj0dIdZt
MXN4epoIbIITuDig2lsCAwEAAaN7MHkwCQYDVR0TBAIwADAsBglghkgBhvhCAQ0E
HxYdT3BlblNTTCBHZW5lcmF0ZWQgQ2VydGlmaWNhdGUwHQYDVR0OBBYEFAqNLamo
pgYxwetZM7zDom4x+jTmMB8GA1UdIwQYMBaAFN8AOygiShpDyq00rCl4SvPGfZwK
MA0GCSqGSIb3DQEBCwUAA4ICAQCSLcQ1YgOm+rbOAHxMR0CWgd/yFrPUpFqF6iX5
f//e3d6ZcDthYnej7lhjKxALbbCSySlFEk9zqhrT5MHM9H5i7l4SrbUqx7cjExaa
fvP0w/FBqE3oLeGcHI/uS02Skspn0lgYc3rx3KS6By1DgTbUKR1vqST8lk0CVskd
6Xl7uQY1dnm3pmKYaQ6c3W2O7TY1au4wDRYqZ1W6Ztn780uvCPpTUaDGPxrPvwzy
dEZL3iBzRW67Rso8tdPOrvsaVRrCd+3PWq4QBcsTP/zQ5PJ+UpG7IiCOOeM5qSOQ
J/NIeOoGpqqAwi3yMJOr0afKE0qp++KucQWI82xSeRzB3OO+uUHffTaa1aIkHmiI
bApdvW2AYnowuv/AwjJos+fX4MuLyN8yLFcAhNFJ+C/qw3/ZfxF0ccZBHNJJc+89
B6JTmnyeMap65R4TwzFBTlVYNMzFkxT+tQkn/SsXy8GLB0xIbscgF/1Pmp7YWkK5
1YtdeMU7w4uhXdrYD61NviTr03yqJEln3/zTF0LwDXpSdUu/OtBDOlwb+Co+YD+e
UMdmcb+cIY2MOtsAWgc23qPqTqO0xmHVp6Pa5FK+aeMOvf8M/h3OsqPLFSlLL+6k
BeHNSBrx2Lj7dV/Xm7RmnLcvFESiBmjo40XK75SxMGelZ2q94xiK4kInbABh5di3
NKwASw==
-----END CERTIFICATE-----
