Certificate:
    Data:
        Version: 3 (0x2)
        Serial Number: 4105 (0x1009)
        Signature Algorithm: sha256WithRSAEncryption
        Issuer: C=AU, ST=Some-State, O=Internet Widgits Pty Ltd
        Validity
            Not Before: Oct 27 08:26:32 2023 GMT
            Not After : Oct 24 08:26:32 2033 GMT
        Subject: C=US, O=xtliucodeforce Inc., CN=csujwc.its.csu.edu.cn
        Subject Public Key Info:
            Public Key Algorithm: rsaEncryption
                RSA Public-Key: (2048 bit)
                Modulus:
                    00:d8:dd:a6:a5:72:c3:96:da:a5:5e:79:92:8e:ce:
                    80:9f:52:87:23:2e:0c:f2:17:93:f3:2b:c3:2a:3c:
                    76:5c:a9:ab:7c:9a:9b:7a:85:bc:b6:8f:09:1c:07:
                    03:ec:79:1e:db:e7:bb:85:ef:da:97:57:ff:a4:1c:
                    72:9b:0f:b4:94:88:da:0a:98:9e:66:b1:b3:9f:d8:
                    07:7f:bc:71:71:b5:6b:23:b9:b7:67:dd:af:f2:5c:
                    9d:57:cd:93:4f:0d:ec:97:20:8c:22:c7:a1:b0:ef:
                    01:50:c1:21:72:6b:1b:99:cc:b4:a3:79:f9:be:94:
                    38:c2:fc:1c:b0:f0:e9:6e:46:37:76:8e:79:37:05:
                    b5:59:c4:56:75:a9:09:af:a9:32:6f:b8:88:eb:47:
                    29:7c:21:39:6e:f9:ff:81:8b:d9:b6:cf:22:a6:b5:
                    94:08:12:7b:30:5f:1e:9c:70:a8:2a:3a:fb:b1:c9:
                    d6:07:64:0c:36:0b:4c:3a:7b:2d:1e:7e:06:73:4a:
                    a9:57:44:68:0f:7b:a8:76:c4:71:1c:88:92:d9:ac:
                    df:a0:78:99:53:f9:a4:7a:85:0c:5c:1a:fc:19:d2:
                    cc:c3:1c:ad:84:a4:b5:d0:70:51:a6:6e:ac:91:1a:
                    6c:f8:6f:ac:29:c8:b5:9d:82:c8:5b:d8:b6:12:ca:
                    3b:8d
                Exponent: 65537 (0x10001)
        X509v3 extensions:
            X509v3 Basic Constraints: 
                CA:FALSE
            Netscape Comment: 
                OpenSSL Generated Certificate
            X509v3 Subject Key Identifier: 
                9C:EF:12:04:33:91:29:16:CF:77:34:54:D8:2D:79:0F:1C:8E:1D:AA
            X509v3 Authority Key Identifier: 
                keyid:DF:00:3B:28:22:4A:1A:43:CA:AD:34:AC:29:78:4A:F3:C6:7D:9C:0A

    Signature Algorithm: sha256WithRSAEncryption
         40:41:84:f2:2d:49:f1:d9:2d:cf:b7:a5:91:07:72:c0:29:d5:
         7b:d6:1b:54:94:d9:39:fc:84:a8:05:92:3d:3f:84:d7:5d:85:
         5b:fa:ef:fa:0a:dc:18:95:09:aa:bd:79:c4:29:62:06:21:24:
         14:be:59:ad:42:07:95:b4:49:c3:e4:6a:a9:00:bc:bc:74:69:
         ea:d3:da:23:b6:c6:27:1e:61:4d:0c:1c:e1:76:66:7f:52:9c:
         5f:83:1b:44:76:30:37:f0:b0:a0:4f:9d:53:4d:69:47:02:fc:
         39:b9:d3:89:27:a3:fb:6e:f3:f9:10:d1:33:13:b8:11:7e:cb:
         b4:27:48:cf:26:dd:0e:19:3e:78:d2:24:45:78:45:9a:c4:c3:
         5f:11:52:77:a2:90:91:54:b4:18:a1:20:30:ec:87:7f:7b:cc:
         c0:04:03:71:08:a1:1c:a6:a6:8f:79:fe:ca:f5:37:d8:36:7b:
         7c:6c:43:81:8d:18:fc:fb:70:76:28:dd:bf:61:a0:e1:e5:1a:
         4c:68:c8:6a:98:32:70:bc:1b:4d:6a:d0:81:08:25:b1:e1:14:
         7d:27:6a:cb:d0:5c:2b:fb:f4:8a:90:8d:18:2d:c4:e2:50:7d:
         ef:ad:b0:f2:46:2f:dc:70:93:49:36:9f:51:f5:3f:80:95:f7:
         f4:b0:77:86:48:85:ce:fd:20:aa:c6:03:e3:24:ee:07:7a:59:
         8f:6c:e1:6a:14:2c:e1:09:9c:99:a3:f3:60:cf:82:99:1d:4d:
         c5:e3:5c:5e:31:c7:cb:7e:ae:85:12:89:3c:9d:eb:1e:6b:20:
         3f:e4:d3:81:78:5f:f6:73:3a:ac:8a:88:ac:87:38:bc:20:d3:
         cf:19:f8:9a:4c:47:10:c7:6e:9c:8d:67:cc:18:fb:ec:81:20:
         80:50:7f:3f:e0:9f:ae:f1:b2:b6:11:2e:94:7b:0a:09:74:6d:
         3a:73:20:d1:22:99:b2:7e:8e:60:f0:e1:ad:e1:10:44:63:37:
         14:b2:30:cb:a6:48:a2:8c:e0:5d:88:ac:92:90:ee:63:d7:de:
         ee:39:a5:a1:68:65:e3:27:67:a8:af:7e:3d:9e:f3:24:2a:c8:
         40:79:9d:a9:6d:5f:78:cc:0c:e5:aa:52:9b:f8:57:0c:ab:ba:
         18:f2:09:ec:ac:72:26:20:9c:1d:2b:7f:41:6f:c7:82:9f:4e:
         87:b4:4e:e4:f2:b6:4d:1f:b7:e4:10:28:c5:e9:27:e0:18:75:
         13:5d:a3:07:45:b0:d9:06:ab:1c:30:a8:1e:e0:39:91:36:85:
         73:e8:f9:5d:0f:c6:52:d2:a8:c4:3f:f7:9d:89:0a:99:30:f9:
         49:f5:20:aa:fd:a4:37:5c
-----BEGIN CERTIFICATE-----
MIIEhzCCAm+gAwIBAgICEAkwDQYJKoZIhvcNAQELBQAwRTELMAkGA1UEBhMCQVUx
EzARBgNVBAgMClNvbWUtU3RhdGUxITAfBgNVBAoMGEludGVybmV0IFdpZGdpdHMg
UHR5IEx0ZDAeFw0yMzEwMjcwODI2MzJaFw0zMzEwMjQwODI2MzJaMEsxCzAJBgNV
BAYTAlVTMRwwGgYDVQQKDBN4dGxpdWNvZGVmb3JjZSBJbmMuMR4wHAYDVQQDDBVj
c3Vqd2MuaXRzLmNzdS5lZHUuY24wggEiMA0GCSqGSIb3DQEBAQUAA4IBDwAwggEK
AoIBAQDY3aalcsOW2qVeeZKOzoCfUocjLgzyF5PzK8MqPHZcqat8mpt6hby2jwkc
BwPseR7b57uF79qXV/+kHHKbD7SUiNoKmJ5msbOf2Ad/vHFxtWsjubdn3a/yXJ1X
zZNPDeyXIIwix6Gw7wFQwSFyaxuZzLSjefm+lDjC/Byw8OluRjd2jnk3BbVZxFZ1
qQmvqTJvuIjrRyl8ITlu+f+Bi9m2zyKmtZQIEnswXx6ccKgqOvuxydYHZAw2C0w6
ey0efgZzSqlXRGgPe6h2xHEciJLZrN+geJlT+aR6hQxcGvwZ0szDHK2EpLXQcFGm
bqyRGmz4b6wpyLWdgshb2LYSyjuNAgMBAAGjezB5MAkGA1UdEwQCMAAwLAYJYIZI
AYb4QgENBB8WHU9wZW5TU0wgR2VuZXJhdGVkIENlcnRpZmljYXRlMB0GA1UdDgQW
BBSc7xIEM5EpFs93NFTYLXkPHI4dqjAfBgNVHSMEGDAWgBTfADsoIkoaQ8qtNKwp
eErzxn2cCjANBgkqhkiG9w0BAQsFAAOCAgEAQEGE8i1J8dktz7elkQdywCnVe9Yb
VJTZOfyEqAWSPT+E112FW/rv+grcGJUJqr15xCliBiEkFL5ZrUIHlbRJw+RqqQC8
vHRp6tPaI7bGJx5hTQwc4XZmf1KcX4MbRHYwN/CwoE+dU01pRwL8ObnTiSej+27z
+RDRMxO4EX7LtCdIzybdDhk+eNIkRXhFmsTDXxFSd6KQkVS0GKEgMOyHf3vMwAQD
cQihHKamj3n+yvU32DZ7fGxDgY0Y/Ptwdijdv2Gg4eUaTGjIapgycLwbTWrQgQgl
seEUfSdqy9BcK/v0ipCNGC3E4lB9762w8kYv3HCTSTafUfU/gJX39LB3hkiFzv0g
qsYD4yTuB3pZj2zhahQs4QmcmaPzYM+CmR1NxeNcXjHHy36uhRKJPJ3rHmsgP+TT
gXhf9nM6rIqIrIc4vCDTzxn4mkxHEMdunI1nzBj77IEggFB/P+CfrvGythEulHsK
CXRtOnMg0SKZsn6OYPDhreEQRGM3FLIwy6ZIoozgXYiskpDuY9fe7jmloWhl4ydn
qK9+PZ7zJCrIQHmdqW1feMwM5apSm/hXDKu6GPIJ7KxyJiCcHSt/QW/Hgp9Oh7RO
5PK2TR+35BAoxekn4Bh1E12jB0Ww2QarHDCoHuA5kTaFc+j5XQ/GUtKoxD/3nYkK
mTD5SfUgqv2kN1w=
-----END CERTIFICATE-----
